; Function Attrs: nounwind sspstrong uwtable
define internal i64 @bind_location(i64 noundef %0) #0 {
  %2 = alloca [2 x i64], align 16
  call void @llvm.lifetime.start.p0(i64 16, ptr nonnull %2) #21
  %3 = inttoptr i64 %0 to ptr
  %4 = getelementptr inbounds nuw i8, ptr %3, i64 32
  %5 = load ptr, ptr %4, align 8, !tbaa !7
  %6 = getelementptr inbounds nuw i8, ptr %5, i64 32
  %7 = load i64, ptr %6, align 8, !tbaa !131
  %8 = icmp ne i64 %7, 0
  %9 = and i64 %7, 7
  %10 = icmp eq i64 %9, 0
  %.not5 = and i1 %8, %10
  %.pre.i = inttoptr i64 %7 to ptr
  %.pre = load i64, ptr %.pre.i, align 8, !tbaa !42
  %11 = and i64 %.pre, 31
  %12 = icmp eq i64 %11, 5
  %or.cond = select i1 %.not5, i1 %12, i1 false
  br i1 %or.cond, label %pathobj_path.exit, label %rbimpl_RB_TYPE_P_fastpath.exit.thread.i

rbimpl_RB_TYPE_P_fastpath.exit.thread.i:          ; preds = %1
  %13 = and i64 %.pre, 8192
  %.not.i.i.i = icmp eq i64 %13, 0
  br i1 %.not.i.i.i, label %16, label %14

14:                                               ; preds = %rbimpl_RB_TYPE_P_fastpath.exit.thread.i
  %15 = getelementptr inbounds nuw i8, ptr %.pre.i, i64 16
  br label %RARRAY_AREF.exit.i

16:                                               ; preds = %rbimpl_RB_TYPE_P_fastpath.exit.thread.i
  %17 = getelementptr inbounds nuw i8, ptr %.pre.i, i64 32
  %18 = load ptr, ptr %17, align 8, !tbaa !35
  br label %RARRAY_AREF.exit.i

RARRAY_AREF.exit.i:                               ; preds = %16, %14
  %.0.i.i.i = phi ptr [ %15, %14 ], [ %18, %16 ]
  %19 = load i64, ptr %.0.i.i.i, align 8, !tbaa !36
  br label %pathobj_path.exit

pathobj_path.exit:                                ; preds = %1, %RARRAY_AREF.exit.i
  %.0.i = phi i64 [ %19, %RARRAY_AREF.exit.i ], [ %7, %1 ]
  store i64 %.0.i, ptr %2, align 16, !tbaa !36
  %20 = getelementptr inbounds nuw i8, ptr %5, i64 40
  %21 = load i32, ptr %20, align 8, !tbaa !113
  %22 = sext i32 %21 to i64
  %23 = shl nsw i64 %22, 1
  %24 = or disjoint i64 %23, 1
  %25 = getelementptr inbounds nuw i8, ptr %2, i64 8
  store i64 %24, ptr %25, align 8, !tbaa !36
  %26 = call i64 @rb_ary_new_from_values(i64 noundef 2, ptr noundef nonnull %2) #21
  call void @llvm.lifetime.end.p0(i64 16, ptr nonnull %2) #21
  ret i64 %26
}